target datalayout = "e-m:e-p270:32:32-p271:32:32-p272:64:64-i64:64-i128:128-f80:128-n8:16:32:64-S128"
target triple = "x86_64-pc-linux-gnu"

%class.Node = type <{ ptr, ptr, ptr, i32, i32, i32, i32, i32, i32, i32, [4 x i8] }>
%class.Node_List = type <{ %class.Node_Array, i32, [4 x i8] }>
%class.Node_Array = type { ptr, i32, ptr }
%class.Node.base = type <{ ptr, ptr, ptr, i32, i32, i32, i32, i32, i32, i32 }>
%class.IdealLoopTree = type <{ ptr, ptr, ptr, ptr, ptr, ptr, i32, i32, %class.Node_List, i16, i8, [5 x i8], ptr, ptr, i8, [7 x i8] }>
%class.LoopNode = type { %class.RegionNode.base, i32, i8, float }
%class.RegionNode.base = type { %class.Node.base, i8, i32 }
%class.CountedLoopNode = type { %class.BaseCountedLoopNode, i32, i32, i32, i32, i32, [4 x i8] }
%class.BaseCountedLoopNode = type { %class.LoopNode }

@.str.23 = private unnamed_addr constant [10 x i8] c"loop_tree\00", align 1
@.str.24 = private unnamed_addr constant [5 x i8] c"loop\00", align 1
@.str.25 = private unnamed_addr constant [11 x i8] c" idx='%d' \00", align 1
@.str.26 = private unnamed_addr constant [17 x i8] c"irreducible='1' \00", align 1
@.str.27 = private unnamed_addr constant [16 x i8] c"inner_loop='1' \00", align 1
@.str.28 = private unnamed_addr constant [23 x i8] c"partial_peel_loop='1' \00", align 1
@.str.29 = private unnamed_addr constant [15 x i8] c"pre_loop='%d' \00", align 1
@.str.30 = private unnamed_addr constant [16 x i8] c"main_loop='%d' \00", align 1
@.str.31 = private unnamed_addr constant [16 x i8] c"post_loop='%d' \00", align 1

; Function Attrs: mustprogress nounwind uwtable
define linkonce_odr hidden noundef zeroext i1 @_ZNK15CountedLoopNode12is_post_loopEv(ptr noundef nonnull align 8 dereferenceable(92) %0) #1 comdat align 2 {
  %2 = alloca ptr, align 8
  store ptr %0, ptr %2, align 8
  %3 = load ptr, ptr %2, align 8
  %4 = getelementptr inbounds %class.LoopNode, ptr %3, i32 0, i32 1
  %5 = load i32, ptr %4, align 4
  %6 = and i32 %5, 3
  %7 = icmp eq i32 %6, 3
  ret i1 %7
}

; Function Attrs: mustprogress nounwind uwtable
define linkonce_odr hidden noundef zeroext i1 @_ZNK15CountedLoopNode12is_main_loopEv(ptr noundef nonnull align 8 dereferenceable(92) %0) #1 comdat align 2 {
  %2 = alloca ptr, align 8
  store ptr %0, ptr %2, align 8
  %3 = load ptr, ptr %2, align 8
  %4 = getelementptr inbounds %class.LoopNode, ptr %3, i32 0, i32 1
  %5 = load i32, ptr %4, align 4
  %6 = and i32 %5, 3
  %7 = icmp eq i32 %6, 2
  ret i1 %7
}

; Function Attrs: mustprogress nounwind uwtable
define linkonce_odr hidden noundef i32 @_ZNK15CountedLoopNode8main_idxEv(ptr noundef nonnull align 8 dereferenceable(92) %0) #1 comdat align 2 {
  %2 = alloca ptr, align 8
  store ptr %0, ptr %2, align 8
  %3 = load ptr, ptr %2, align 8
  %4 = getelementptr inbounds %class.CountedLoopNode, ptr %3, i32 0, i32 1
  %5 = load i32, ptr %4, align 8
  ret i32 %5
}

; Function Attrs: mustprogress nounwind uwtable
define linkonce_odr hidden noundef zeroext i1 @_ZNK15CountedLoopNode11is_pre_loopEv(ptr noundef nonnull align 8 dereferenceable(92) %0) #1 comdat align 2 {
  %2 = alloca ptr, align 8
  store ptr %0, ptr %2, align 8
  %3 = load ptr, ptr %2, align 8
  %4 = getelementptr inbounds %class.LoopNode, ptr %3, i32 0, i32 1
  %5 = load i32, ptr %4, align 4
  %6 = and i32 %5, 3
  %7 = icmp eq i32 %6, 1
  ret i1 %7
}

; Function Attrs: mustprogress nounwind uwtable
define linkonce_odr hidden noundef ptr @_ZNK4Node14as_CountedLoopEv(ptr noundef nonnull align 8 dereferenceable(52) %0) #1 comdat align 2 {
  %2 = alloca ptr, align 8
  store ptr %0, ptr %2, align 8
  %3 = load ptr, ptr %2, align 8
  ret ptr %3
}

; Function Attrs: mustprogress nounwind uwtable
define linkonce_odr hidden noundef zeroext i1 @_ZNK4Node14is_CountedLoopEv(ptr noundef nonnull align 8 dereferenceable(52) %0) #1 comdat align 2 {
  %2 = alloca ptr, align 8
  store ptr %0, ptr %2, align 8
  %3 = load ptr, ptr %2, align 8
  %4 = getelementptr inbounds %class.Node, ptr %3, i32 0, i32 8
  %5 = load i32, ptr %4, align 4
  %6 = and i32 %5, 1023
  %7 = icmp eq i32 %6, 864
  ret i1 %7
}

; Function Attrs: mustprogress nounwind uwtable
define linkonce_odr hidden noundef zeroext i1 @_ZNK8LoopNode20is_partial_peel_loopEv(ptr noundef nonnull align 8 dereferenceable(72) %0) #1 comdat align 2 {
  %2 = alloca ptr, align 8
  store ptr %0, ptr %2, align 8
  %3 = load ptr, ptr %2, align 8
  %4 = getelementptr inbounds %class.LoopNode, ptr %3, i32 0, i32 1
  %5 = load i32, ptr %4, align 4
  %6 = and i32 %5, 32
  %7 = icmp ne i32 %6, 0
  ret i1 %7
}

; Function Attrs: mustprogress nounwind uwtable
define linkonce_odr hidden noundef zeroext i1 @_ZNK8LoopNode13is_inner_loopEv(ptr noundef nonnull align 8 dereferenceable(72) %0) #1 comdat align 2 {
  %2 = alloca ptr, align 8
  store ptr %0, ptr %2, align 8
  %3 = load ptr, ptr %2, align 8
  %4 = getelementptr inbounds %class.LoopNode, ptr %3, i32 0, i32 1
  %5 = load i32, ptr %4, align 4
  %6 = and i32 %5, 16
  %7 = icmp ne i32 %6, 0
  ret i1 %7
}

; Function Attrs: mustprogress nounwind uwtable
define linkonce_odr hidden noundef ptr @_ZNK4Node7as_LoopEv(ptr noundef nonnull align 8 dereferenceable(52) %0) #1 comdat align 2 {
  %2 = alloca ptr, align 8
  store ptr %0, ptr %2, align 8
  %3 = load ptr, ptr %2, align 8
  ret ptr %3
}

; Function Attrs: mustprogress nounwind uwtable
define linkonce_odr hidden noundef zeroext i1 @_ZNK4Node7is_LoopEv(ptr noundef nonnull align 8 dereferenceable(52) %0) #1 comdat align 2 {
  %2 = alloca ptr, align 8
  store ptr %0, ptr %2, align 8
  %3 = load ptr, ptr %2, align 8
  %4 = getelementptr inbounds %class.Node, ptr %3, i32 0, i32 8
  %5 = load i32, ptr %4, align 4
  %6 = and i32 %5, 127
  %7 = icmp eq i32 %6, 96
  ret i1 %7
}

; Function Attrs: mustprogress nounwind uwtable
define internal void @_ZL20log_loop_tree_helperP13IdealLoopTreeS0_P10CompileLog(ptr noundef %0, ptr noundef %1, ptr noundef %2) #1 {
  %4 = alloca ptr, align 8
  %5 = alloca ptr, align 8
  %6 = alloca ptr, align 8
  %7 = alloca ptr, align 8
  %8 = alloca ptr, align 8
  store ptr %0, ptr %4, align 8
  store ptr %1, ptr %5, align 8
  store ptr %2, ptr %6, align 8
  %9 = load ptr, ptr %5, align 8
  %10 = load ptr, ptr %4, align 8
  %11 = icmp eq ptr %9, %10
  br i1 %11, label %12, label %27

12:                                               ; preds = %3
  %13 = load ptr, ptr %5, align 8
  %14 = getelementptr inbounds %class.IdealLoopTree, ptr %13, i32 0, i32 2
  %15 = load ptr, ptr %14, align 8
  %16 = icmp ne ptr %15, null
  br i1 %16, label %17, label %26

17:                                               ; preds = %12
  %18 = load ptr, ptr %6, align 8
  call void (ptr, ptr, ...) @_ZN9xmlStream10begin_headEPKcz(ptr noundef nonnull align 8 dereferenceable(152) %18, ptr noundef @.str.23)
  %19 = load ptr, ptr %6, align 8
  call void @_ZN9xmlStream8end_headEv(ptr noundef nonnull align 8 dereferenceable(152) %19)
  %20 = load ptr, ptr %4, align 8
  %21 = load ptr, ptr %5, align 8
  %22 = getelementptr inbounds %class.IdealLoopTree, ptr %21, i32 0, i32 2
  %23 = load ptr, ptr %22, align 8
  %24 = load ptr, ptr %6, align 8
  call void @_ZL20log_loop_tree_helperP13IdealLoopTreeS0_P10CompileLog(ptr noundef %20, ptr noundef %23, ptr noundef %24)
  %25 = load ptr, ptr %6, align 8
  call void @_ZN9xmlStream4tailEPKc(ptr noundef nonnull align 8 dereferenceable(152) %25, ptr noundef @.str.23)
  br label %26

26:                                               ; preds = %17, %12
  br label %105

27:                                               ; preds = %3
  %28 = load ptr, ptr %5, align 8
  %29 = icmp ne ptr %28, null
  br i1 %29, label %30, label %104

30:                                               ; preds = %27
  %31 = load ptr, ptr %5, align 8
  %32 = getelementptr inbounds %class.IdealLoopTree, ptr %31, i32 0, i32 3
  %33 = load ptr, ptr %32, align 8
  store ptr %33, ptr %7, align 8
  %34 = load ptr, ptr %6, align 8
  call void (ptr, ptr, ...) @_ZN9xmlStream10begin_headEPKcz(ptr noundef nonnull align 8 dereferenceable(152) %34, ptr noundef @.str.24)
  %35 = load ptr, ptr %6, align 8
  %36 = load ptr, ptr %7, align 8
  %37 = getelementptr inbounds %class.Node, ptr %36, i32 0, i32 7
  %38 = load i32, ptr %37, align 8
  call void (ptr, ptr, ...) @_ZN12outputStream5printEPKcz(ptr noundef nonnull align 8 dereferenceable(56) %35, ptr noundef @.str.25, i32 noundef %38)
  %39 = load ptr, ptr %5, align 8
  %40 = getelementptr inbounds %class.IdealLoopTree, ptr %39, i32 0, i32 10
  %41 = load i8, ptr %40, align 2
  %42 = and i8 %41, 1
  %43 = icmp ne i8 %42, 0
  br i1 %43, label %44, label %46

44:                                               ; preds = %30
  %45 = load ptr, ptr %6, align 8
  call void (ptr, ptr, ...) @_ZN12outputStream5printEPKcz(ptr noundef nonnull align 8 dereferenceable(56) %45, ptr noundef @.str.26)
  br label %46

46:                                               ; preds = %44, %30
  %47 = load ptr, ptr %7, align 8
  %48 = call noundef zeroext i1 @_ZNK4Node7is_LoopEv(ptr noundef nonnull align 8 dereferenceable(52) %47)
  br i1 %48, label %49, label %62

49:                                               ; preds = %46
  %50 = load ptr, ptr %7, align 8
  %51 = call noundef ptr @_ZNK4Node7as_LoopEv(ptr noundef nonnull align 8 dereferenceable(52) %50)
  %52 = call noundef zeroext i1 @_ZNK8LoopNode13is_inner_loopEv(ptr noundef nonnull align 8 dereferenceable(72) %51)
  br i1 %52, label %53, label %55

53:                                               ; preds = %49
  %54 = load ptr, ptr %6, align 8
  call void (ptr, ptr, ...) @_ZN12outputStream5printEPKcz(ptr noundef nonnull align 8 dereferenceable(56) %54, ptr noundef @.str.27)
  br label %55

55:                                               ; preds = %53, %49
  %56 = load ptr, ptr %7, align 8
  %57 = call noundef ptr @_ZNK4Node7as_LoopEv(ptr noundef nonnull align 8 dereferenceable(52) %56)
  %58 = call noundef zeroext i1 @_ZNK8LoopNode20is_partial_peel_loopEv(ptr noundef nonnull align 8 dereferenceable(72) %57)
  br i1 %58, label %59, label %61

59:                                               ; preds = %55
  %60 = load ptr, ptr %6, align 8
  call void (ptr, ptr, ...) @_ZN12outputStream5printEPKcz(ptr noundef nonnull align 8 dereferenceable(56) %60, ptr noundef @.str.28)
  br label %61

61:                                               ; preds = %59, %55
  br label %91

62:                                               ; preds = %46
  %63 = load ptr, ptr %7, align 8
  %64 = call noundef zeroext i1 @_ZNK4Node14is_CountedLoopEv(ptr noundef nonnull align 8 dereferenceable(52) %63)
  br i1 %64, label %65, label %90

65:                                               ; preds = %62
  %66 = load ptr, ptr %7, align 8
  %67 = call noundef ptr @_ZNK4Node14as_CountedLoopEv(ptr noundef nonnull align 8 dereferenceable(52) %66)
  store ptr %67, ptr %8, align 8
  %68 = load ptr, ptr %8, align 8
  %69 = call noundef zeroext i1 @_ZNK15CountedLoopNode11is_pre_loopEv(ptr noundef nonnull align 8 dereferenceable(92) %68)
  br i1 %69, label %70, label %74

70:                                               ; preds = %65
  %71 = load ptr, ptr %6, align 8
  %72 = load ptr, ptr %8, align 8
  %73 = call noundef i32 @_ZNK15CountedLoopNode8main_idxEv(ptr noundef nonnull align 8 dereferenceable(92) %72)
  call void (ptr, ptr, ...) @_ZN12outputStream5printEPKcz(ptr noundef nonnull align 8 dereferenceable(56) %71, ptr noundef @.str.29, i32 noundef %73)
  br label %74

74:                                               ; preds = %70, %65
  %75 = load ptr, ptr %8, align 8
  %76 = call noundef zeroext i1 @_ZNK15CountedLoopNode12is_main_loopEv(ptr noundef nonnull align 8 dereferenceable(92) %75)
  br i1 %76, label %77, label %82

77:                                               ; preds = %74
  %78 = load ptr, ptr %6, align 8
  %79 = load ptr, ptr %8, align 8
  %80 = getelementptr inbounds %class.Node, ptr %79, i32 0, i32 7
  %81 = load i32, ptr %80, align 8
  call void (ptr, ptr, ...) @_ZN12outputStream5printEPKcz(ptr noundef nonnull align 8 dereferenceable(56) %78, ptr noundef @.str.30, i32 noundef %81)
  br label %82

82:                                               ; preds = %77, %74
  %83 = load ptr, ptr %8, align 8
  %84 = call noundef zeroext i1 @_ZNK15CountedLoopNode12is_post_loopEv(ptr noundef nonnull align 8 dereferenceable(92) %83)
  br i1 %84, label %85, label %89

85:                                               ; preds = %82
  %86 = load ptr, ptr %6, align 8
  %87 = load ptr, ptr %8, align 8
  %88 = call noundef i32 @_ZNK15CountedLoopNode8main_idxEv(ptr noundef nonnull align 8 dereferenceable(92) %87)
  call void (ptr, ptr, ...) @_ZN12outputStream5printEPKcz(ptr noundef nonnull align 8 dereferenceable(56) %86, ptr noundef @.str.31, i32 noundef %88)
  br label %89

89:                                               ; preds = %85, %82
  br label %90

90:                                               ; preds = %89, %62
  br label %91

91:                                               ; preds = %90, %61
  %92 = load ptr, ptr %6, align 8
  call void @_ZN9xmlStream8end_headEv(ptr noundef nonnull align 8 dereferenceable(152) %92)
  %93 = load ptr, ptr %4, align 8
  %94 = load ptr, ptr %5, align 8
  %95 = getelementptr inbounds %class.IdealLoopTree, ptr %94, i32 0, i32 2
  %96 = load ptr, ptr %95, align 8
  %97 = load ptr, ptr %6, align 8
  call void @_ZL20log_loop_tree_helperP13IdealLoopTreeS0_P10CompileLog(ptr noundef %93, ptr noundef %96, ptr noundef %97)
  %98 = load ptr, ptr %6, align 8
  call void @_ZN9xmlStream4tailEPKc(ptr noundef nonnull align 8 dereferenceable(152) %98, ptr noundef @.str.24)
  %99 = load ptr, ptr %4, align 8
  %100 = load ptr, ptr %5, align 8
  %101 = getelementptr inbounds %class.IdealLoopTree, ptr %100, i32 0, i32 1
  %102 = load ptr, ptr %101, align 8
  %103 = load ptr, ptr %6, align 8
  call void @_ZL20log_loop_tree_helperP13IdealLoopTreeS0_P10CompileLog(ptr noundef %99, ptr noundef %102, ptr noundef %103)
  br label %104

104:                                              ; preds = %91, %27
  br label %105

105:                                              ; preds = %104, %26
  ret void
}