; Function Attrs: mustprogress nounwind uwtable
define internal fastcc void @_ZL20log_loop_tree_helperP13IdealLoopTreeS0_P10CompileLog(ptr noundef %0, ptr noundef readonly %1, ptr noundef %2) unnamed_addr #0 {
  %4 = icmp eq ptr %1, %0
  br i1 %4, label %tailrecurse._crit_edge, label %.lr.ph

tailrecurse._crit_edge:                           ; preds = %tailrecurse, %3
  %.tr46.lcssa = phi ptr [ %1, %3 ], [ %59, %tailrecurse ]
  %5 = getelementptr inbounds i8, ptr %.tr46.lcssa, i64 16
  %6 = load ptr, ptr %5, align 8
  %.not43 = icmp eq ptr %6, null
  br i1 %.not43, label %common.ret52, label %7

common.ret52:                                     ; preds = %tailrecurse._crit_edge, %.lr.ph, %7
  ret void

7:                                                ; preds = %tailrecurse._crit_edge
  tail call void (ptr, ptr, ...) @_ZN9xmlStream10begin_headEPKcz(ptr noundef nonnull align 8 dereferenceable(152) %2, ptr noundef nonnull @.str.23) #15
  tail call void @_ZN9xmlStream8end_headEv(ptr noundef nonnull align 8 dereferenceable(152) %2) #15
  %8 = load ptr, ptr %5, align 8
  tail call fastcc void @_ZL20log_loop_tree_helperP13IdealLoopTreeS0_P10CompileLog(ptr noundef %0, ptr noundef %8, ptr noundef nonnull %2)
  tail call void @_ZN9xmlStream4tailEPKc(ptr noundef nonnull align 8 dereferenceable(152) %2, ptr noundef nonnull @.str.23) #15
  br label %common.ret52

.lr.ph:                                           ; preds = %3, %tailrecurse
  %.tr4649 = phi ptr [ %59, %tailrecurse ], [ %1, %3 ]
  %.not = icmp eq ptr %.tr4649, null
  br i1 %.not, label %common.ret52, label %9

9:                                                ; preds = %.lr.ph
  %10 = getelementptr inbounds i8, ptr %.tr4649, i64 24
  %11 = load ptr, ptr %10, align 8
  tail call void (ptr, ptr, ...) @_ZN9xmlStream10begin_headEPKcz(ptr noundef nonnull align 8 dereferenceable(152) %2, ptr noundef nonnull @.str.24) #15
  %12 = getelementptr inbounds i8, ptr %11, i64 40
  %13 = load i32, ptr %12, align 8
  tail call void (ptr, ptr, ...) @_ZN12outputStream5printEPKcz(ptr noundef nonnull align 8 dereferenceable(56) %2, ptr noundef nonnull @.str.25, i32 noundef %13) #15
  %14 = getelementptr inbounds i8, ptr %.tr4649, i64 90
  %15 = load i8, ptr %14, align 2
  %16 = and i8 %15, 1
  %.not42 = icmp eq i8 %16, 0
  br i1 %.not42, label %18, label %17

17:                                               ; preds = %9
  tail call void (ptr, ptr, ...) @_ZN12outputStream5printEPKcz(ptr noundef nonnull align 8 dereferenceable(56) %2, ptr noundef nonnull @.str.26) #15
  br label %18

18:                                               ; preds = %17, %9
  %19 = getelementptr inbounds i8, ptr %11, i64 44
  %20 = load i32, ptr %19, align 4
  %21 = and i32 %20, 127
  %22 = icmp eq i32 %21, 96
  br i1 %22, label %23, label %32

23:                                               ; preds = %18
  %24 = getelementptr inbounds i8, ptr %11, i64 60
  %25 = load i32, ptr %24, align 4
  %26 = and i32 %25, 16
  %.not44 = icmp eq i32 %26, 0
  br i1 %.not44, label %28, label %27

27:                                               ; preds = %23
  tail call void (ptr, ptr, ...) @_ZN12outputStream5printEPKcz(ptr noundef nonnull align 8 dereferenceable(56) %2, ptr noundef nonnull @.str.27) #15
  %.pre51 = load i32, ptr %24, align 4
  br label %28

28:                                               ; preds = %27, %23
  %29 = phi i32 [ %.pre51, %27 ], [ %25, %23 ]
  %30 = and i32 %29, 32
  %.not45 = icmp eq i32 %30, 0
  br i1 %.not45, label %tailrecurse, label %31

31:                                               ; preds = %28
  tail call void (ptr, ptr, ...) @_ZN12outputStream5printEPKcz(ptr noundef nonnull align 8 dereferenceable(56) %2, ptr noundef nonnull @.str.28) #15
  br label %tailrecurse

32:                                               ; preds = %18
  %33 = and i32 %20, 1023
  %34 = icmp eq i32 %33, 864
  br i1 %34, label %35, label %tailrecurse

35:                                               ; preds = %32
  %36 = getelementptr inbounds i8, ptr %11, i64 60
  %37 = load i32, ptr %36, align 4
  %38 = and i32 %37, 3
  %39 = icmp eq i32 %38, 1
  br i1 %39, label %40, label %43

40:                                               ; preds = %35
  %41 = getelementptr inbounds i8, ptr %11, i64 72
  %42 = load i32, ptr %41, align 8
  tail call void (ptr, ptr, ...) @_ZN12outputStream5printEPKcz(ptr noundef nonnull align 8 dereferenceable(56) %2, ptr noundef nonnull @.str.29, i32 noundef %42) #15
  %.pre = load i32, ptr %36, align 4
  br label %43

43:                                               ; preds = %40, %35
  %44 = phi i32 [ %.pre, %40 ], [ %37, %35 ]
  %45 = and i32 %44, 3
  %46 = icmp eq i32 %45, 2
  br i1 %46, label %47, label %49

47:                                               ; preds = %43
  %48 = load i32, ptr %12, align 8
  tail call void (ptr, ptr, ...) @_ZN12outputStream5printEPKcz(ptr noundef nonnull align 8 dereferenceable(56) %2, ptr noundef nonnull @.str.30, i32 noundef %48) #15
  %.pre50 = load i32, ptr %36, align 4
  br label %49

49:                                               ; preds = %47, %43
  %50 = phi i32 [ %.pre50, %47 ], [ %44, %43 ]
  %51 = and i32 %50, 3
  %52 = icmp eq i32 %51, 3
  br i1 %52, label %53, label %tailrecurse

53:                                               ; preds = %49
  %54 = getelementptr inbounds i8, ptr %11, i64 72
  %55 = load i32, ptr %54, align 8
  tail call void (ptr, ptr, ...) @_ZN12outputStream5printEPKcz(ptr noundef nonnull align 8 dereferenceable(56) %2, ptr noundef nonnull @.str.31, i32 noundef %55) #15
  br label %tailrecurse

tailrecurse:                                      ; preds = %32, %53, %49, %28, %31
  tail call void @_ZN9xmlStream8end_headEv(ptr noundef nonnull align 8 dereferenceable(152) %2) #15
  %56 = getelementptr inbounds i8, ptr %.tr4649, i64 16
  %57 = load ptr, ptr %56, align 8
  tail call fastcc void @_ZL20log_loop_tree_helperP13IdealLoopTreeS0_P10CompileLog(ptr noundef %0, ptr noundef %57, ptr noundef nonnull %2)
  tail call void @_ZN9xmlStream4tailEPKc(ptr noundef nonnull align 8 dereferenceable(152) %2, ptr noundef nonnull @.str.24) #15
  %58 = getelementptr inbounds i8, ptr %.tr4649, i64 8
  %59 = load ptr, ptr %58, align 8
  %60 = icmp eq ptr %59, %0
  br i1 %60, label %tailrecurse._crit_edge, label %.lr.ph
}